target datalayout = "e-m:e-p270:32:32-p271:32:32-p272:64:64-i64:64-i128:128-f80:128-n8:16:32:64-S128"
target triple = "x86_64-pc-linux-gnu"

%union.SourceSpan = type { i64 }
%struct.Vmem = type { ptr, i64, i64 }
%struct.Decl_ = type { ptr, ptr, %union.SourceSpan, i64, %union.anon, i32, %union.anon.0, i64, ptr, ptr, ptr, %union.anon.1 }
%union.anon = type { ptr }
%union.anon.0 = type { i16 }
%union.anon.1 = type { %struct.FuncDecl }
%struct.FuncDecl = type { i32, [4 x i8], %struct.Signature_, i32, i32, %union.anon.8 }
%struct.Signature_ = type <{ %struct.CalleeAttributes, i16, i8, i32, i32, [4 x i8], ptr }>
%struct.CalleeAttributes = type { i8 }
%union.anon.8 = type { %struct.anon.9 }
%struct.anon.9 = type { i16, %union.anon.10 }
%union.anon.10 = type { ptr }
%struct.VHeader_ = type { i32, i32, [0 x i8] }
%struct.TypeInfo_ = type { i16, ptr, %union.SourceSpan, %union.anon.56 }
%union.anon.56 = type { %struct.anon.57 }
%struct.anon.57 = type { ptr, ptr }
%struct.Type_ = type { i32, ptr, ptr, ptr, %union.anon.85, ptr, ptr, %union.anon.87 }
%union.anon.85 = type { ptr }
%union.anon.87 = type { %struct.TypeFunction }
%struct.TypeFunction = type { ptr, ptr, ptr }

@type_info_arena = external global %struct.Vmem, align 8

; Function Attrs: nounwind uwtable
define internal ptr @type_infoptr(i32 noundef %0) #0 {
  %2 = alloca i32, align 4
  store i32 %0, ptr %2, align 4
  %3 = load ptr, ptr @type_info_arena, align 8
  %4 = load i32, ptr %2, align 4
  %5 = zext i32 %4 to i64
  %6 = getelementptr inbounds %struct.TypeInfo_, ptr %3, i64 %5
  ret ptr %6
}

; Function Attrs: nounwind uwtable
define dso_local ptr @sema_find_extension_method_in_list(ptr noundef %0, ptr noundef %1, ptr noundef %2) #0 {
  %4 = alloca i32, align 4
  %5 = alloca ptr, align 8
  %6 = alloca ptr, align 8
  %7 = alloca ptr, align 8
  %8 = alloca ptr, align 8
  %9 = alloca ptr, align 8
  %10 = alloca ptr, align 8
  %11 = alloca i32, align 4
  %12 = alloca i32, align 4
  %13 = alloca ptr, align 8
  store ptr %0, ptr %8, align 8
  store ptr %1, ptr %9, align 8
  store ptr %2, ptr %10, align 8
  store i32 0, ptr %11, align 4
  %14 = load ptr, ptr %8, align 8
  store ptr %14, ptr %5, align 8
  %15 = load ptr, ptr %5, align 8
  %16 = icmp ne ptr %15, null
  br i1 %16, label %18, label %17

17:                                               ; preds = %3
  store i32 0, ptr %4, align 4
  br label %23

18:                                               ; preds = %3
  %19 = load ptr, ptr %5, align 8
  store ptr %19, ptr %6, align 8
  %20 = load ptr, ptr %6, align 8
  %21 = getelementptr inbounds %struct.VHeader_, ptr %20, i64 -1
  %22 = load i32, ptr %21, align 4
  store i32 %22, ptr %4, align 4
  br label %23

23:                                               ; preds = %18, %17
  %24 = load i32, ptr %4, align 4
  store i32 %24, ptr %12, align 4
  br label %25

25:                                               ; preds = %56, %23
  %26 = load i32, ptr %11, align 4
  %27 = load i32, ptr %12, align 4
  %28 = icmp ult i32 %26, %27
  br i1 %28, label %29, label %59

29:                                               ; preds = %25
  %30 = load ptr, ptr %8, align 8
  %31 = load i32, ptr %11, align 4
  %32 = zext i32 %31 to i64
  %33 = getelementptr inbounds ptr, ptr %30, i64 %32
  %34 = load ptr, ptr %33, align 8
  store ptr %34, ptr %13, align 8
  %35 = load ptr, ptr %13, align 8
  %36 = getelementptr inbounds %struct.Decl_, ptr %35, i32 0, i32 0
  %37 = load ptr, ptr %36, align 8
  %38 = load ptr, ptr %10, align 8
  %39 = icmp ne ptr %37, %38
  br i1 %39, label %40, label %41

40:                                               ; preds = %29
  br label %56

41:                                               ; preds = %29
  %42 = load ptr, ptr %13, align 8
  %43 = getelementptr inbounds %struct.Decl_, ptr %42, i32 0, i32 11
  %44 = getelementptr inbounds %struct.FuncDecl, ptr %43, i32 0, i32 0
  %45 = load i32, ptr %44, align 8
  %46 = call ptr @type_infoptr(i32 noundef %45)
  %47 = getelementptr inbounds %struct.TypeInfo_, ptr %46, i32 0, i32 1
  %48 = load ptr, ptr %47, align 8
  %49 = getelementptr inbounds %struct.Type_, ptr %48, i32 0, i32 1
  %50 = load ptr, ptr %49, align 8
  %51 = load ptr, ptr %9, align 8
  %52 = icmp eq ptr %50, %51
  br i1 %52, label %53, label %55

53:                                               ; preds = %41
  %54 = load ptr, ptr %13, align 8
  store ptr %54, ptr %7, align 8
  br label %60

55:                                               ; preds = %41
  br label %56

56:                                               ; preds = %55, %40
  %57 = load i32, ptr %11, align 4
  %58 = add i32 %57, 1
  store i32 %58, ptr %11, align 4
  br label %25, !llvm.loop !17

59:                                               ; preds = %25
  store ptr null, ptr %7, align 8
  br label %60

60:                                               ; preds = %59, %53
  %61 = load ptr, ptr %7, align 8
  ret ptr %61
}