; Function Attrs: nofree norecurse nosync nounwind memory(read, inaccessiblemem: none) uwtable
define dso_local noundef ptr @sema_find_extension_method_in_list(ptr noundef readonly %0, ptr noundef readnone %1, ptr noundef readnone %2) local_unnamed_addr #0 {
  %.not = icmp eq ptr %0, null
  br i1 %.not, label %._crit_edge, label %4

4:                                                ; preds = %3
  %5 = getelementptr inbounds i8, ptr %0, i64 -8
  %6 = load i32, ptr %5, align 4
  %.not22 = icmp eq i32 %6, 0
  br i1 %.not22, label %._crit_edge, label %.lr.ph

.lr.ph:                                           ; preds = %4
  %7 = load ptr, ptr @type_info_arena, align 8
  %wide.trip.count = zext i32 %6 to i64
  br label %8

8:                                                ; preds = %.lr.ph, %21
  %indvars.iv = phi i64 [ 0, %.lr.ph ], [ %indvars.iv.next, %21 ]
  %9 = getelementptr inbounds ptr, ptr %0, i64 %indvars.iv
  %10 = load ptr, ptr %9, align 8
  %11 = load ptr, ptr %10, align 8
  %.not18 = icmp eq ptr %11, %2
  br i1 %.not18, label %12, label %21

12:                                               ; preds = %8
  %13 = getelementptr inbounds i8, ptr %10, i64 80
  %14 = load i32, ptr %13, align 8
  %15 = zext i32 %14 to i64
  %16 = getelementptr inbounds %struct.TypeInfo_, ptr %7, i64 %15, i32 1
  %17 = load ptr, ptr %16, align 8
  %18 = getelementptr inbounds i8, ptr %17, i64 8
  %19 = load ptr, ptr %18, align 8
  %20 = icmp eq ptr %19, %1
  br i1 %20, label %._crit_edge, label %21

21:                                               ; preds = %12, %8
  %indvars.iv.next = add nuw nsw i64 %indvars.iv, 1
  %exitcond.not = icmp eq i64 %indvars.iv.next, %wide.trip.count
  br i1 %exitcond.not, label %._crit_edge, label %8, !llvm.loop !17

._crit_edge:                                      ; preds = %12, %21, %3, %4
  %.015 = phi ptr [ null, %4 ], [ null, %3 ], [ null, %21 ], [ %10, %12 ]
  ret ptr %.015
}